target datalayout = "e-m:e-p270:32:32-p271:32:32-p272:64:64-i64:64-i128:128-f80:128-n8:16:32:64-S128"
target triple = "x86_64-pc-linux-gnu"

%struct.darktable_t = type { %struct.dt_codepath_t, i32, i32, ptr, ptr, ptr, ptr, ptr, ptr, ptr, ptr, ptr, ptr, ptr, ptr, ptr, ptr, ptr, ptr, ptr, ptr, ptr, ptr, ptr, ptr, ptr, ptr, ptr, ptr, ptr, [64 x %struct.dt_pthread_mutex_t], %struct.dt_pthread_mutex_t, %struct.dt_pthread_mutex_t, %struct.dt_pthread_mutex_t, %struct.dt_pthread_mutex_t, %struct.dt_pthread_mutex_t, ptr, ptr, ptr, ptr, ptr, ptr, ptr, ptr, ptr, ptr, ptr, ptr, ptr, %struct.dt_lua_state_t, ptr, double, ptr, i32, [47 x i32], i32, i32, ptr, ptr, %struct.dt_sys_resources_t, %struct.dt_backthumb_t, %struct.dt_gimp_t }
%struct.dt_codepath_t = type { i8, [3 x i8] }
%struct.dt_pthread_mutex_t = type { %union.pthread_mutex_t }
%union.pthread_mutex_t = type { %struct.__pthread_mutex_s }
%struct.__pthread_mutex_s = type { i32, i32, i32, i32, i32, i16, i16, %struct.__pthread_internal_list }
%struct.__pthread_internal_list = type { ptr, ptr }
%struct.dt_lua_state_t = type { i32 }
%struct.dt_sys_resources_t = type { i64, i64, ptr, ptr, i32 }
%struct.dt_backthumb_t = type { double, double, i32, i32, i32, i32 }
%struct.dt_gimp_t = type { i32, ptr, ptr, i32, i32 }
%struct.dt_masks_form_t = type { ptr, i32, ptr, [2 x float], [128 x i8], i32, i32 }
%struct._GList = type { ptr, ptr, ptr }
%struct.dt_masks_point_group_t = type { i32, i32, i32, float }
%struct.dt_masks_functions_t = type { i32, ptr, ptr, ptr, ptr, ptr, ptr, ptr, ptr, ptr, ptr, ptr, ptr, ptr, ptr, ptr, ptr, ptr, ptr, ptr }

@darktable = external global %struct.darktable_t, align 8

; Function Attrs: nounwind uwtable
define internal ptr @_group_setup_mouse_actions(ptr noundef %0) #0 {
  %2 = alloca ptr, align 8
  %3 = alloca ptr, align 8
  %4 = alloca i32, align 4
  %5 = alloca ptr, align 8
  %6 = alloca i32, align 4
  %7 = alloca ptr, align 8
  %8 = alloca ptr, align 8
  %9 = alloca ptr, align 8
  store ptr %0, ptr %2, align 8, !tbaa !13
  call void @llvm.lifetime.start.p0(i64 8, ptr %3) #10
  store ptr null, ptr %3, align 8, !tbaa !84
  call void @llvm.lifetime.start.p0(i64 4, ptr %4) #10
  store i32 140, ptr %4, align 4, !tbaa !17
  call void @llvm.lifetime.start.p0(i64 8, ptr %5) #10
  %10 = load ptr, ptr %2, align 8, !tbaa !13
  %11 = getelementptr inbounds nuw %struct.dt_masks_form_t, ptr %10, i32 0, i32 0
  %12 = load ptr, ptr %11, align 8, !tbaa !19
  store ptr %12, ptr %5, align 8, !tbaa !23
  br label %13

13:                                               ; preds = %77, %1
  %14 = load ptr, ptr %5, align 8, !tbaa !23
  %15 = icmp ne ptr %14, null
  br i1 %15, label %17, label %16

16:                                               ; preds = %13
  store i32 2, ptr %6, align 4
  call void @llvm.lifetime.end.p0(i64 8, ptr %5) #10
  br label %79

17:                                               ; preds = %13
  call void @llvm.lifetime.start.p0(i64 8, ptr %7) #10
  %18 = load ptr, ptr %5, align 8, !tbaa !23
  %19 = getelementptr inbounds nuw %struct._GList, ptr %18, i32 0, i32 0
  %20 = load ptr, ptr %19, align 8, !tbaa !24
  store ptr %20, ptr %7, align 8, !tbaa !26
  call void @llvm.lifetime.start.p0(i64 8, ptr %8) #10
  %21 = load ptr, ptr getelementptr inbounds nuw (%struct.darktable_t, ptr @darktable, i32 0, i32 9), align 8, !tbaa !28
  %22 = load ptr, ptr %7, align 8, !tbaa !26
  %23 = getelementptr inbounds nuw %struct.dt_masks_point_group_t, ptr %22, i32 0, i32 0
  %24 = load i32, ptr %23, align 4, !tbaa !65
  %25 = call ptr @dt_masks_get_from_id(ptr noundef %21, i32 noundef %24)
  store ptr %25, ptr %8, align 8, !tbaa !13
  %26 = load ptr, ptr %8, align 8, !tbaa !13
  %27 = icmp ne ptr %26, null
  br i1 %27, label %28, label %36

28:                                               ; preds = %17
  %29 = load ptr, ptr %8, align 8, !tbaa !13
  %30 = getelementptr inbounds nuw %struct.dt_masks_form_t, ptr %29, i32 0, i32 1
  %31 = load i32, ptr %30, align 8, !tbaa !86
  %32 = load i32, ptr %4, align 4, !tbaa !17
  %33 = xor i32 %32, -1
  %34 = and i32 %31, %33
  %35 = icmp eq i32 %34, 0
  br i1 %35, label %36, label %37

36:                                               ; preds = %28, %17
  store i32 4, ptr %6, align 4
  br label %66

37:                                               ; preds = %28
  %38 = load ptr, ptr %8, align 8, !tbaa !13
  %39 = getelementptr inbounds nuw %struct.dt_masks_form_t, ptr %38, i32 0, i32 2
  %40 = load ptr, ptr %39, align 8, !tbaa !67
  %41 = icmp ne ptr %40, null
  br i1 %41, label %42, label %65

42:                                               ; preds = %37
  %43 = load ptr, ptr %8, align 8, !tbaa !13
  %44 = getelementptr inbounds nuw %struct.dt_masks_form_t, ptr %43, i32 0, i32 2
  %45 = load ptr, ptr %44, align 8, !tbaa !67
  %46 = getelementptr inbounds nuw %struct.dt_masks_functions_t, ptr %45, i32 0, i32 2
  %47 = load ptr, ptr %46, align 8, !tbaa !87
  %48 = icmp ne ptr %47, null
  br i1 %48, label %49, label %65

49:                                               ; preds = %42
  call void @llvm.lifetime.start.p0(i64 8, ptr %9) #10
  %50 = load ptr, ptr %8, align 8, !tbaa !13
  %51 = getelementptr inbounds nuw %struct.dt_masks_form_t, ptr %50, i32 0, i32 2
  %52 = load ptr, ptr %51, align 8, !tbaa !67
  %53 = getelementptr inbounds nuw %struct.dt_masks_functions_t, ptr %52, i32 0, i32 2
  %54 = load ptr, ptr %53, align 8, !tbaa !87
  %55 = load ptr, ptr %8, align 8, !tbaa !13
  %56 = call ptr %54(ptr noundef %55)
  store ptr %56, ptr %9, align 8, !tbaa !84
  %57 = load ptr, ptr %3, align 8, !tbaa !84
  %58 = load ptr, ptr %9, align 8, !tbaa !84
  %59 = call ptr @g_slist_concat(ptr noundef %57, ptr noundef %58)
  store ptr %59, ptr %3, align 8, !tbaa !84
  %60 = load ptr, ptr %8, align 8, !tbaa !13
  %61 = getelementptr inbounds nuw %struct.dt_masks_form_t, ptr %60, i32 0, i32 1
  %62 = load i32, ptr %61, align 8, !tbaa !86
  %63 = load i32, ptr %4, align 4, !tbaa !17
  %64 = or i32 %63, %62
  store i32 %64, ptr %4, align 4, !tbaa !17
  call void @llvm.lifetime.end.p0(i64 8, ptr %9) #10
  br label %65

65:                                               ; preds = %49, %42, %37
  store i32 0, ptr %6, align 4
  br label %66

66:                                               ; preds = %65, %36
  call void @llvm.lifetime.end.p0(i64 8, ptr %8) #10
  call void @llvm.lifetime.end.p0(i64 8, ptr %7) #10
  %67 = load i32, ptr %6, align 4
  switch i32 %67, label %81 [
    i32 0, label %68
    i32 4, label %69
  ]

68:                                               ; preds = %66
  br label %69

69:                                               ; preds = %68, %66
  %70 = load ptr, ptr %5, align 8, !tbaa !23
  %71 = icmp ne ptr %70, null
  br i1 %71, label %72, label %76

72:                                               ; preds = %69
  %73 = load ptr, ptr %5, align 8, !tbaa !23
  %74 = getelementptr inbounds nuw %struct._GList, ptr %73, i32 0, i32 1
  %75 = load ptr, ptr %74, align 8, !tbaa !70
  br label %77

76:                                               ; preds = %69
  br label %77

77:                                               ; preds = %76, %72
  %78 = phi ptr [ %75, %72 ], [ null, %76 ]
  store ptr %78, ptr %5, align 8, !tbaa !23
  br label %13

79:                                               ; preds = %16
  %80 = load ptr, ptr %3, align 8, !tbaa !84
  store i32 1, ptr %6, align 4
  call void @llvm.lifetime.end.p0(i64 4, ptr %4) #10
  call void @llvm.lifetime.end.p0(i64 8, ptr %3) #10
  ret ptr %80

81:                                               ; preds = %66
  unreachable
}