; Function Attrs: nounwind uwtable
define internal ptr @_group_setup_mouse_actions(ptr noundef readonly captures(none) %0) #0 {
  %.02027 = load ptr, ptr %0, align 8, !tbaa !6
  %.not28 = icmp eq ptr %.02027, null
  br i1 %.not28, label %._crit_edge, label %.lr.ph

._crit_edge:                                      ; preds = %23, %1
  %.0.lcssa = phi ptr [ null, %1 ], [ %.1, %23 ]
  ret ptr %.0.lcssa

.lr.ph:                                           ; preds = %1, %23
  %.02031 = phi ptr [ %.020, %23 ], [ %.02027, %1 ]
  %.030 = phi ptr [ %.1, %23 ], [ null, %1 ]
  %.01729 = phi i32 [ %.118, %23 ], [ 140, %1 ]
  %2 = load ptr, ptr %.02031, align 8, !tbaa !11
  %3 = load ptr, ptr getelementptr inbounds nuw (i8, ptr @darktable, i64 64), align 8, !tbaa !13
  %4 = load i32, ptr %2, align 4, !tbaa !51
  %5 = tail call ptr @dt_masks_get_from_id(ptr noundef %3, i32 noundef %4) #12
  %.not24 = icmp eq ptr %5, null
  br i1 %.not24, label %23, label %6

6:                                                ; preds = %.lr.ph
  %7 = getelementptr inbounds nuw i8, ptr %5, i64 8
  %8 = load i32, ptr %7, align 8, !tbaa !65
  %9 = xor i32 %.01729, -1
  %10 = and i32 %8, %9
  %11 = icmp eq i32 %10, 0
  br i1 %11, label %23, label %12

12:                                               ; preds = %6
  %13 = getelementptr inbounds nuw i8, ptr %5, i64 16
  %14 = load ptr, ptr %13, align 8, !tbaa !54
  %.not25 = icmp eq ptr %14, null
  br i1 %.not25, label %23, label %15

15:                                               ; preds = %12
  %16 = getelementptr inbounds nuw i8, ptr %14, i64 16
  %17 = load ptr, ptr %16, align 8, !tbaa !66
  %.not26 = icmp eq ptr %17, null
  br i1 %.not26, label %23, label %18

18:                                               ; preds = %15
  %19 = tail call ptr %17(ptr noundef nonnull %5) #12
  %20 = tail call ptr @g_slist_concat(ptr noundef %.030, ptr noundef %19) #12
  %21 = load i32, ptr %7, align 8, !tbaa !65
  %22 = or i32 %21, %.01729
  br label %23

23:                                               ; preds = %12, %15, %18, %.lr.ph, %6
  %.118 = phi i32 [ %.01729, %6 ], [ %.01729, %.lr.ph ], [ %22, %18 ], [ %.01729, %15 ], [ %.01729, %12 ]
  %.1 = phi ptr [ %.030, %6 ], [ %.030, %.lr.ph ], [ %20, %18 ], [ %.030, %15 ], [ %.030, %12 ]
  %24 = getelementptr inbounds nuw i8, ptr %.02031, i64 8
  %.020 = load ptr, ptr %24, align 8, !tbaa !6
  %.not = icmp eq ptr %.020, null
  br i1 %.not, label %._crit_edge, label %.lr.ph
}